; Function Attrs: mustprogress nofree norecurse nosync nounwind willreturn memory(argmem: write) uwtable
define void @_ZN22grpc_local_credentialsC2E23grpc_local_connect_type(ptr nocapture noundef nonnull writeonly align 8 dereferenceable(24) %this, i32 noundef %connect_type) unnamed_addr #4 align 2 personality ptr @__gxx_personality_v0 {
entry:
  %refs_.i.i = getelementptr inbounds i8, ptr %this, i64 8
  store i64 1, ptr %refs_.i.i, align 8
  store ptr getelementptr inbounds ({ [9 x ptr] }, ptr @_ZTV22grpc_local_credentials, i64 0, i32 0, i64 2), ptr %this, align 8
  %connect_type_ = getelementptr inbounds i8, ptr %this, i64 16
  store i32 %connect_type, ptr %connect_type_, align 8
  ret void
}